target datalayout = "e-m:e-p270:32:32-p271:32:32-p272:64:64-i64:64-i128:128-f80:128-n8:16:32:64-S128"
target triple = "x86_64-pc-linux-gnu"

%struct.ident_t = type { i32, i32, i32, i32, ptr }
%"class.ncnn::Mat" = type { ptr, ptr, i64, i32, ptr, i32, i32, i32, i32, i32, i64 }

@1 = private unnamed_addr constant %struct.ident_t { i32 0, i32 514, i32 0, i32 22, ptr @0 }, align 8

; Function Attrs: noinline noreturn nounwind uwtable
define linkonce_odr hidden void @__clang_call_terminate(ptr noundef %0) #8 comdat {
  %2 = call ptr @__cxa_begin_catch(ptr %0) #7
  call void @_ZSt9terminatev() #12
  unreachable
}

; Function Attrs: alwaysinline mustprogress nounwind uwtable
define linkonce_odr hidden noundef ptr @_ZN4ncnn3Mat3rowEi(ptr noundef nonnull align 8 dereferenceable(72) %0, i32 noundef %1) #5 comdat align 2 {
  %3 = alloca ptr, align 8
  %4 = alloca i32, align 4
  store ptr %0, ptr %3, align 8, !tbaa !30
  store i32 %1, ptr %4, align 4, !tbaa !36
  %5 = load ptr, ptr %3, align 8
  %6 = getelementptr inbounds nuw %"class.ncnn::Mat", ptr %5, i32 0, i32 0
  %7 = load ptr, ptr %6, align 8, !tbaa !56
  %8 = getelementptr inbounds nuw %"class.ncnn::Mat", ptr %5, i32 0, i32 6
  %9 = load i32, ptr %8, align 4, !tbaa !37
  %10 = sext i32 %9 to i64
  %11 = load i32, ptr %4, align 4, !tbaa !36
  %12 = sext i32 %11 to i64
  %13 = mul i64 %10, %12
  %14 = getelementptr inbounds nuw %"class.ncnn::Mat", ptr %5, i32 0, i32 2
  %15 = load i64, ptr %14, align 8, !tbaa !57
  %16 = mul i64 %13, %15
  %17 = getelementptr inbounds nuw i8, ptr %7, i64 %16
  ret ptr %17
}

; Function Attrs: alwaysinline norecurse nounwind uwtable
define internal void @_ZNK4ncnn13CumulativeSum15forward_inplaceERNS_3MatERKNS_6OptionE.omp_outlined(ptr noalias noundef %0, ptr noalias noundef %1, ptr noundef nonnull align 4 dereferenceable(4) %2, ptr noundef nonnull align 8 dereferenceable(72) %3, ptr noundef nonnull align 4 dereferenceable(4) %4) #6 personality ptr @__gxx_personality_v0 {
  %6 = alloca ptr, align 8
  %7 = alloca ptr, align 8
  %8 = alloca ptr, align 8
  %9 = alloca ptr, align 8
  %10 = alloca ptr, align 8
  %11 = alloca ptr, align 8
  %12 = alloca i32, align 4
  %13 = alloca i32, align 4
  %14 = alloca i32, align 4
  %15 = alloca i32, align 4
  %16 = alloca i32, align 4
  %17 = alloca i32, align 4
  %18 = alloca i32, align 4
  %19 = alloca i32, align 4
  %20 = alloca i32, align 4
  %21 = alloca ptr, align 8
  %22 = alloca i32, align 4
  store ptr %0, ptr %6, align 8, !tbaa !58
  store ptr %1, ptr %7, align 8, !tbaa !58
  store ptr %2, ptr %8, align 8, !tbaa !58
  store ptr %3, ptr %9, align 8, !tbaa !30
  store ptr %4, ptr %10, align 8, !tbaa !58
  %23 = load ptr, ptr %8, align 8, !tbaa !58
  %24 = load ptr, ptr %9, align 8, !tbaa !30
  %25 = load ptr, ptr %10, align 8, !tbaa !58
  store ptr %24, ptr %11, align 8
  call void @llvm.lifetime.start.p0(i64 4, ptr %12) #7
  call void @llvm.lifetime.start.p0(i64 4, ptr %13) #7
  %26 = load i32, ptr %23, align 4, !tbaa !36
  store i32 %26, ptr %13, align 4, !tbaa !36
  call void @llvm.lifetime.start.p0(i64 4, ptr %14) #7
  %27 = load i32, ptr %13, align 4, !tbaa !36
  %28 = sub nsw i32 %27, 0
  %29 = sdiv i32 %28, 1
  %30 = sub nsw i32 %29, 1
  store i32 %30, ptr %14, align 4, !tbaa !36
  call void @llvm.lifetime.start.p0(i64 4, ptr %15) #7
  store i32 0, ptr %15, align 4, !tbaa !36
  call void @llvm.lifetime.end.p0(i64 4, ptr %15) #7
  %31 = load i32, ptr %13, align 4, !tbaa !36
  %32 = icmp slt i32 0, %31
  br i1 %32, label %33, label %94

33:                                               ; preds = %5
  call void @llvm.lifetime.start.p0(i64 4, ptr %16) #7
  store i32 0, ptr %16, align 4, !tbaa !36
  call void @llvm.lifetime.start.p0(i64 4, ptr %17) #7
  %34 = load i32, ptr %14, align 4, !tbaa !36
  store i32 %34, ptr %17, align 4, !tbaa !36
  call void @llvm.lifetime.start.p0(i64 4, ptr %18) #7
  store i32 1, ptr %18, align 4, !tbaa !36
  call void @llvm.lifetime.start.p0(i64 4, ptr %19) #7
  store i32 0, ptr %19, align 4, !tbaa !36
  call void @llvm.lifetime.start.p0(i64 4, ptr %20) #7
  %35 = load ptr, ptr %6, align 8
  %36 = load i32, ptr %35, align 4, !tbaa !36
  call void @__kmpc_for_static_init_4(ptr @1, i32 %36, i32 34, ptr %19, ptr %16, ptr %17, ptr %18, i32 1, i32 1)
  %37 = load i32, ptr %17, align 4, !tbaa !36
  %38 = load i32, ptr %14, align 4, !tbaa !36
  %39 = icmp sgt i32 %37, %38
  br i1 %39, label %40, label %42

40:                                               ; preds = %33
  %41 = load i32, ptr %14, align 4, !tbaa !36
  br label %44

42:                                               ; preds = %33
  %43 = load i32, ptr %17, align 4, !tbaa !36
  br label %44

44:                                               ; preds = %42, %40
  %45 = phi i32 [ %41, %40 ], [ %43, %42 ]
  store i32 %45, ptr %17, align 4, !tbaa !36
  %46 = load i32, ptr %16, align 4, !tbaa !36
  store i32 %46, ptr %12, align 4, !tbaa !36
  br label %47

47:                                               ; preds = %87, %44
  %48 = load i32, ptr %12, align 4, !tbaa !36
  %49 = load i32, ptr %17, align 4, !tbaa !36
  %50 = icmp sle i32 %48, %49
  br i1 %50, label %52, label %51

51:                                               ; preds = %47
  br label %90

52:                                               ; preds = %47
  %53 = load i32, ptr %12, align 4, !tbaa !36
  %54 = mul nsw i32 %53, 1
  %55 = add nsw i32 0, %54
  store i32 %55, ptr %20, align 4, !tbaa !36
  call void @llvm.lifetime.start.p0(i64 8, ptr %21) #7
  %56 = load ptr, ptr %11, align 8, !tbaa !30
  %57 = load i32, ptr %20, align 4, !tbaa !36
  %58 = invoke noundef ptr @_ZN4ncnn3Mat3rowEi(ptr noundef nonnull align 8 dereferenceable(72) %56, i32 noundef %57)
          to label %59 unwind label %95

59:                                               ; preds = %52
  store ptr %58, ptr %21, align 8, !tbaa !38
  call void @llvm.lifetime.start.p0(i64 4, ptr %22) #7
  store i32 1, ptr %22, align 4, !tbaa !36
  br label %60

60:                                               ; preds = %82, %59
  %61 = load i32, ptr %22, align 4, !tbaa !36
  %62 = load i32, ptr %25, align 4, !tbaa !36
  %63 = icmp slt i32 %61, %62
  br i1 %63, label %65, label %64

64:                                               ; preds = %60
  call void @llvm.lifetime.end.p0(i64 4, ptr %22) #7
  br label %85

65:                                               ; preds = %60
  %66 = load ptr, ptr %21, align 8, !tbaa !38
  %67 = load i32, ptr %22, align 4, !tbaa !36
  %68 = sext i32 %67 to i64
  %69 = getelementptr inbounds float, ptr %66, i64 %68
  %70 = load float, ptr %69, align 4, !tbaa !40
  %71 = load ptr, ptr %21, align 8, !tbaa !38
  %72 = load i32, ptr %22, align 4, !tbaa !36
  %73 = sub nsw i32 %72, 1
  %74 = sext i32 %73 to i64
  %75 = getelementptr inbounds float, ptr %71, i64 %74
  %76 = load float, ptr %75, align 4, !tbaa !40
  %77 = fadd fast float %70, %76
  %78 = load ptr, ptr %21, align 8, !tbaa !38
  %79 = load i32, ptr %22, align 4, !tbaa !36
  %80 = sext i32 %79 to i64
  %81 = getelementptr inbounds float, ptr %78, i64 %80
  store float %77, ptr %81, align 4, !tbaa !40
  br label %82

82:                                               ; preds = %65
  %83 = load i32, ptr %22, align 4, !tbaa !36
  %84 = add nsw i32 %83, 1
  store i32 %84, ptr %22, align 4, !tbaa !36
  br label %60, !llvm.loop !59

85:                                               ; preds = %64
  call void @llvm.lifetime.end.p0(i64 8, ptr %21) #7
  br label %86

86:                                               ; preds = %85
  br label %87

87:                                               ; preds = %86
  %88 = load i32, ptr %12, align 4, !tbaa !36
  %89 = add nsw i32 %88, 1
  store i32 %89, ptr %12, align 4, !tbaa !36
  br label %47

90:                                               ; preds = %51
  br label %91

91:                                               ; preds = %90
  %92 = load ptr, ptr %6, align 8
  %93 = load i32, ptr %92, align 4, !tbaa !36
  call void @__kmpc_for_static_fini(ptr @1, i32 %93)
  call void @llvm.lifetime.end.p0(i64 4, ptr %20) #7
  call void @llvm.lifetime.end.p0(i64 4, ptr %19) #7
  call void @llvm.lifetime.end.p0(i64 4, ptr %18) #7
  call void @llvm.lifetime.end.p0(i64 4, ptr %17) #7
  call void @llvm.lifetime.end.p0(i64 4, ptr %16) #7
  br label %94

94:                                               ; preds = %91, %5
  call void @llvm.lifetime.end.p0(i64 4, ptr %14) #7
  call void @llvm.lifetime.end.p0(i64 4, ptr %13) #7
  call void @llvm.lifetime.end.p0(i64 4, ptr %12) #7
  ret void

95:                                               ; preds = %52
  %96 = landingpad { ptr, i32 }
          catch ptr null
  %97 = extractvalue { ptr, i32 } %96, 0
  call void @__clang_call_terminate(ptr %97) #12
  unreachable
}