; Function Attrs: alwaysinline norecurse nounwind uwtable
define internal void @_ZNK4ncnn13CumulativeSum15forward_inplaceERNS_3MatERKNS_6OptionE.omp_outlined(ptr noalias noundef readonly captures(none) %0, ptr noalias readnone captures(none) %1, ptr noundef nonnull readonly align 4 captures(none) dereferenceable(4) %2, ptr noundef nonnull readonly align 8 captures(none) dereferenceable(72) %3, ptr noundef nonnull readonly align 4 captures(none) dereferenceable(4) %4) #6 personality ptr @__gxx_personality_v0 {
  %6 = alloca i32, align 4
  %7 = alloca i32, align 4
  %8 = alloca i32, align 4
  %9 = alloca i32, align 4
  %10 = load i32, ptr %2, align 4, !tbaa !39
  %11 = icmp sgt i32 %10, 0
  br i1 %11, label %12, label %38

12:                                               ; preds = %5
  %13 = add nsw i32 %10, -1
  call void @llvm.lifetime.start.p0(i64 4, ptr nonnull %6) #7
  store i32 0, ptr %6, align 4, !tbaa !39
  call void @llvm.lifetime.start.p0(i64 4, ptr nonnull %7) #7
  store i32 %13, ptr %7, align 4, !tbaa !39
  call void @llvm.lifetime.start.p0(i64 4, ptr nonnull %8) #7
  store i32 1, ptr %8, align 4, !tbaa !39
  call void @llvm.lifetime.start.p0(i64 4, ptr nonnull %9) #7
  store i32 0, ptr %9, align 4, !tbaa !39
  %14 = load i32, ptr %0, align 4, !tbaa !39
  call void @__kmpc_for_static_init_4(ptr nonnull @1, i32 %14, i32 34, ptr nonnull %9, ptr nonnull %6, ptr nonnull %7, ptr nonnull %8, i32 1, i32 1)
  %15 = load i32, ptr %7, align 4, !tbaa !39
  %16 = call i32 @llvm.smin.i32(i32 %15, i32 %13)
  store i32 %16, ptr %7, align 4, !tbaa !39
  %17 = load i32, ptr %6, align 4, !tbaa !39
  %.not24 = icmp sgt i32 %17, %16
  br i1 %.not24, label %._crit_edge28, label %.lr.ph27

.lr.ph27:                                         ; preds = %12
  %18 = load ptr, ptr %3, align 8, !tbaa !30
  %19 = getelementptr inbounds nuw i8, ptr %3, i64 44
  %20 = load i32, ptr %19, align 4, !tbaa !29
  %21 = sext i32 %20 to i64
  %22 = getelementptr inbounds nuw i8, ptr %3, i64 16
  %23 = load i64, ptr %22, align 8, !tbaa !36
  %factor.op.mul = mul i64 %23, %21
  %24 = load i32, ptr %4, align 4, !tbaa !39
  %25 = icmp sgt i32 %24, 1
  br i1 %25, label %.lr.ph.us.preheader, label %._crit_edge28

.lr.ph.us.preheader:                              ; preds = %.lr.ph27
  %26 = sext i32 %17 to i64
  %27 = add nsw i32 %16, 1
  %wide.trip.count = zext nneg i32 %24 to i64
  %28 = mul i64 %23, %21
  %29 = mul i64 %28, %26
  %30 = mul i64 %23, %21
  %31 = getelementptr i8, ptr %18, i64 %29
  br label %.lr.ph.us

.lr.ph.us:                                        ; preds = %.lr.ph.us.preheader, %._crit_edge.us
  %indvar = phi i64 [ 0, %.lr.ph.us.preheader ], [ %indvar.next, %._crit_edge.us ]
  %indvars.iv31 = phi i64 [ %26, %.lr.ph.us.preheader ], [ %indvars.iv.next32, %._crit_edge.us ]
  %32 = mul i64 %30, %indvar
  %scevgep = getelementptr i8, ptr %31, i64 %32
  %.reass.us = mul i64 %factor.op.mul, %indvars.iv31
  %33 = getelementptr inbounds nuw i8, ptr %18, i64 %.reass.us
  %load_initial = load float, ptr %scevgep, align 4
  br label %34

34:                                               ; preds = %.lr.ph.us, %34
  %store_forwarded = phi float [ %load_initial, %.lr.ph.us ], [ %37, %34 ]
  %indvars.iv = phi i64 [ 1, %.lr.ph.us ], [ %indvars.iv.next, %34 ]
  %35 = getelementptr inbounds nuw float, ptr %33, i64 %indvars.iv
  %36 = load float, ptr %35, align 4, !tbaa !31
  %37 = fadd fast float %store_forwarded, %36
  store float %37, ptr %35, align 4, !tbaa !31
  %indvars.iv.next = add nuw nsw i64 %indvars.iv, 1
  %exitcond.not = icmp eq i64 %indvars.iv.next, %wide.trip.count
  br i1 %exitcond.not, label %._crit_edge.us, label %34, !llvm.loop !53

._crit_edge.us:                                   ; preds = %34
  %indvars.iv.next32 = add nsw i64 %indvars.iv31, 1
  %lftr.wideiv = trunc i64 %indvars.iv.next32 to i32
  %exitcond34.not = icmp eq i32 %27, %lftr.wideiv
  %indvar.next = add i64 %indvar, 1
  br i1 %exitcond34.not, label %._crit_edge28, label %.lr.ph.us

._crit_edge28:                                    ; preds = %._crit_edge.us, %.lr.ph27, %12
  call void @__kmpc_for_static_fini(ptr nonnull @1, i32 %14)
  call void @llvm.lifetime.end.p0(i64 4, ptr nonnull %9) #7
  call void @llvm.lifetime.end.p0(i64 4, ptr nonnull %8) #7
  call void @llvm.lifetime.end.p0(i64 4, ptr nonnull %7) #7
  call void @llvm.lifetime.end.p0(i64 4, ptr nonnull %6) #7
  br label %38

38:                                               ; preds = %._crit_edge28, %5
  ret void
}